target datalayout = "e-m:e-p270:32:32-p271:32:32-p272:64:64-i64:64-i128:128-f80:128-n8:16:32:64-S128"
target triple = "x86_64-pc-linux-gnu"

%"struct.cv::softdouble" = type { i64 }
%"struct.cv::softfloat" = type { i32 }
%"struct.cv::commonNaN" = type { i8, i64, i64 }
%"struct.cv::exp16_sig32" = type { i64, i64 }

; Function Attrs: mustprogress nounwind uwtable
define linkonce_odr hidden void @_ZN2cv10softdoubleC2Ev(ptr noundef nonnull align 8 dereferenceable(8) %0) unnamed_addr #1 comdat align 2 {
  %2 = alloca ptr, align 8
  store ptr %0, ptr %2, align 8
  %3 = load ptr, ptr %2, align 8
  %4 = getelementptr inbounds %"struct.cv::softdouble", ptr %3, i32 0, i32 0
  store i64 0, ptr %4, align 8
  ret void
}

; Function Attrs: mustprogress nounwind uwtable
define internal noundef zeroext i8 @_ZN2cvL29softfloat_countLeadingZeros32Ej(i32 noundef %0) #1 {
  %2 = alloca i32, align 4
  %3 = alloca i8, align 1
  store i32 %0, ptr %2, align 4
  store i8 0, ptr %3, align 1
  %4 = load i32, ptr %2, align 4
  %5 = icmp ult i32 %4, 65536
  br i1 %5, label %6, label %9

6:                                                ; preds = %1
  store i8 16, ptr %3, align 1
  %7 = load i32, ptr %2, align 4
  %8 = shl i32 %7, 16
  store i32 %8, ptr %2, align 4
  br label %9

9:                                                ; preds = %6, %1
  %10 = load i32, ptr %2, align 4
  %11 = icmp ult i32 %10, 16777216
  br i1 %11, label %12, label %19

12:                                               ; preds = %9
  %13 = load i8, ptr %3, align 1
  %14 = zext i8 %13 to i32
  %15 = add nsw i32 %14, 8
  %16 = trunc i32 %15 to i8
  store i8 %16, ptr %3, align 1
  %17 = load i32, ptr %2, align 4
  %18 = shl i32 %17, 8
  store i32 %18, ptr %2, align 4
  br label %19

19:                                               ; preds = %12, %9
  %20 = load i32, ptr %2, align 4
  %21 = lshr i32 %20, 24
  %22 = zext i32 %21 to i64
  %23 = getelementptr inbounds [256 x i8], ptr @_ZN2cvL28softfloat_countLeadingZeros8E, i64 0, i64 %22
  %24 = load i8, ptr %23, align 1
  %25 = zext i8 %24 to i32
  %26 = load i8, ptr %3, align 1
  %27 = zext i8 %26 to i32
  %28 = add nsw i32 %27, %25
  %29 = trunc i32 %28 to i8
  store i8 %29, ptr %3, align 1
  %30 = load i8, ptr %3, align 1
  ret i8 %30
}

; Function Attrs: mustprogress nounwind uwtable
define internal void @_ZN2cvL10raiseFlagsEh(i8 noundef zeroext %0) #1 {
  %2 = alloca i8, align 1
  store i8 %0, ptr %2, align 1
  ret void
}

; Function Attrs: mustprogress uwtable
define linkonce_odr hidden void @_ZN2cv10softdouble7fromRawEm(ptr dead_on_unwind noalias writable sret(%"struct.cv::softdouble") align 8 %0, i64 noundef %1) #0 comdat align 2 {
  %3 = alloca ptr, align 8
  %4 = alloca i64, align 8
  store ptr %0, ptr %3, align 8
  store i64 %1, ptr %4, align 8
  call void @_ZN2cv10softdoubleC2Ev(ptr noundef nonnull align 8 dereferenceable(8) %0)
  %5 = load i64, ptr %4, align 8
  %6 = getelementptr inbounds %"struct.cv::softdouble", ptr %0, i32 0, i32 0
  store i64 %5, ptr %6, align 8
  ret void
}

; Function Attrs: mustprogress nounwind uwtable
define internal { i64, i64 } @_ZN2cvL29softfloat_normSubnormalF32SigEm(i64 noundef %0) #1 {
  %2 = alloca %"struct.cv::exp16_sig32", align 8
  %3 = alloca i64, align 8
  %4 = alloca i8, align 1
  store i64 %0, ptr %3, align 8
  %5 = load i64, ptr %3, align 8
  %6 = trunc i64 %5 to i32
  %7 = call noundef zeroext i8 @_ZN2cvL29softfloat_countLeadingZeros32Ej(i32 noundef %6)
  %8 = zext i8 %7 to i32
  %9 = sub nsw i32 %8, 8
  %10 = trunc i32 %9 to i8
  store i8 %10, ptr %4, align 1
  %11 = load i8, ptr %4, align 1
  %12 = sext i8 %11 to i32
  %13 = sub nsw i32 1, %12
  %14 = sext i32 %13 to i64
  %15 = getelementptr inbounds %"struct.cv::exp16_sig32", ptr %2, i32 0, i32 0
  store i64 %14, ptr %15, align 8
  %16 = load i64, ptr %3, align 8
  %17 = load i8, ptr %4, align 1
  %18 = sext i8 %17 to i32
  %19 = zext i32 %18 to i64
  %20 = shl i64 %16, %19
  %21 = getelementptr inbounds %"struct.cv::exp16_sig32", ptr %2, i32 0, i32 1
  store i64 %20, ptr %21, align 8
  %22 = load { i64, i64 }, ptr %2, align 8
  ret { i64, i64 } %22
}

; Function Attrs: mustprogress nounwind uwtable
define internal noundef i64 @_ZN2cvL26softfloat_commonNaNToF64UIEPKNS_9commonNaNE(ptr noundef %0) #1 {
  %2 = alloca ptr, align 8
  store ptr %0, ptr %2, align 8
  %3 = load ptr, ptr %2, align 8
  %4 = getelementptr inbounds %"struct.cv::commonNaN", ptr %3, i32 0, i32 0
  %5 = load i8, ptr %4, align 8
  %6 = trunc i8 %5 to i1
  %7 = zext i1 %6 to i64
  %8 = shl i64 %7, 63
  %9 = or i64 %8, 9221120237041090560
  %10 = load ptr, ptr %2, align 8
  %11 = getelementptr inbounds %"struct.cv::commonNaN", ptr %10, i32 0, i32 2
  %12 = load i64, ptr %11, align 8
  %13 = lshr i64 %12, 12
  %14 = or i64 %9, %13
  ret i64 %14
}

; Function Attrs: mustprogress nounwind uwtable
define internal void @_ZN2cvL26softfloat_f32UIToCommonNaNEmPNS_9commonNaNE(i64 noundef %0, ptr noundef %1) #1 {
  %3 = alloca i64, align 8
  %4 = alloca ptr, align 8
  store i64 %0, ptr %3, align 8
  store ptr %1, ptr %4, align 8
  %5 = load i64, ptr %3, align 8
  %6 = and i64 %5, 2143289344
  %7 = icmp eq i64 %6, 2139095040
  br i1 %7, label %8, label %13

8:                                                ; preds = %2
  %9 = load i64, ptr %3, align 8
  %10 = and i64 %9, 4194303
  %11 = icmp ne i64 %10, 0
  br i1 %11, label %12, label %13

12:                                               ; preds = %8
  call void @_ZN2cvL10raiseFlagsEh(i8 noundef zeroext 16)
  br label %13

13:                                               ; preds = %12, %8, %2
  %14 = load i64, ptr %3, align 8
  %15 = lshr i64 %14, 31
  %16 = icmp ne i64 %15, 0
  %17 = load ptr, ptr %4, align 8
  %18 = getelementptr inbounds %"struct.cv::commonNaN", ptr %17, i32 0, i32 0
  %19 = zext i1 %16 to i8
  store i8 %19, ptr %18, align 8
  %20 = load i64, ptr %3, align 8
  %21 = shl i64 %20, 41
  %22 = load ptr, ptr %4, align 8
  %23 = getelementptr inbounds %"struct.cv::commonNaN", ptr %22, i32 0, i32 2
  store i64 %21, ptr %23, align 8
  %24 = load ptr, ptr %4, align 8
  %25 = getelementptr inbounds %"struct.cv::commonNaN", ptr %24, i32 0, i32 1
  store i64 0, ptr %25, align 8
  ret void
}

; Function Attrs: mustprogress uwtable
define internal void @_ZN2cvL10f32_to_f64ENS_9softfloatE(ptr dead_on_unwind noalias writable sret(%"struct.cv::softdouble") align 8 %0, ptr noundef %1) #0 {
  %3 = alloca ptr, align 8
  %4 = alloca ptr, align 8
  %5 = alloca i64, align 8
  %6 = alloca i8, align 1
  %7 = alloca i64, align 8
  %8 = alloca i64, align 8
  %9 = alloca %"struct.cv::commonNaN", align 8
  %10 = alloca i64, align 8
  %11 = alloca %"struct.cv::exp16_sig32", align 8
  %12 = alloca %"struct.cv::exp16_sig32", align 8
  store ptr %0, ptr %3, align 8
  store ptr %1, ptr %4, align 8
  %13 = getelementptr inbounds %"struct.cv::softfloat", ptr %1, i32 0, i32 0
  %14 = load i32, ptr %13, align 4
  %15 = zext i32 %14 to i64
  store i64 %15, ptr %5, align 8
  %16 = load i64, ptr %5, align 8
  %17 = trunc i64 %16 to i32
  %18 = lshr i32 %17, 31
  %19 = icmp ne i32 %18, 0
  %20 = zext i1 %19 to i8
  store i8 %20, ptr %6, align 1
  %21 = load i64, ptr %5, align 8
  %22 = lshr i64 %21, 23
  %23 = and i64 %22, 255
  store i64 %23, ptr %7, align 8
  %24 = load i64, ptr %5, align 8
  %25 = and i64 %24, 8388607
  store i64 %25, ptr %8, align 8
  %26 = load i64, ptr %7, align 8
  %27 = icmp eq i64 %26, 255
  br i1 %27, label %28, label %42

28:                                               ; preds = %2
  %29 = load i64, ptr %8, align 8
  %30 = icmp ne i64 %29, 0
  br i1 %30, label %31, label %34

31:                                               ; preds = %28
  %32 = load i64, ptr %5, align 8
  call void @_ZN2cvL26softfloat_f32UIToCommonNaNEmPNS_9commonNaNE(i64 noundef %32, ptr noundef %9)
  %33 = call noundef i64 @_ZN2cvL26softfloat_commonNaNToF64UIEPKNS_9commonNaNE(ptr noundef %9)
  store i64 %33, ptr %10, align 8
  br label %41

34:                                               ; preds = %28
  %35 = load i8, ptr %6, align 1
  %36 = trunc i8 %35 to i1
  %37 = zext i1 %36 to i64
  %38 = shl i64 %37, 63
  %39 = add i64 %38, 9218868437227405312
  %40 = add i64 %39, 0
  store i64 %40, ptr %10, align 8
  br label %41

41:                                               ; preds = %34, %31
  br label %79

42:                                               ; preds = %2
  %43 = load i64, ptr %7, align 8
  %44 = icmp ne i64 %43, 0
  br i1 %44, label %67, label %45

45:                                               ; preds = %42
  %46 = load i64, ptr %8, align 8
  %47 = icmp ne i64 %46, 0
  br i1 %47, label %55, label %48

48:                                               ; preds = %45
  %49 = load i8, ptr %6, align 1
  %50 = trunc i8 %49 to i1
  %51 = zext i1 %50 to i64
  %52 = shl i64 %51, 63
  %53 = add i64 %52, 0
  %54 = add i64 %53, 0
  store i64 %54, ptr %10, align 8
  br label %79

55:                                               ; preds = %45
  %56 = load i64, ptr %8, align 8
  %57 = call { i64, i64 } @_ZN2cvL29softfloat_normSubnormalF32SigEm(i64 noundef %56)
  %58 = getelementptr inbounds { i64, i64 }, ptr %12, i32 0, i32 0
  %59 = extractvalue { i64, i64 } %57, 0
  store i64 %59, ptr %58, align 8
  %60 = getelementptr inbounds { i64, i64 }, ptr %12, i32 0, i32 1
  %61 = extractvalue { i64, i64 } %57, 1
  store i64 %61, ptr %60, align 8
  call void @llvm.memcpy.p0.p0.i64(ptr align 8 %11, ptr align 8 %12, i64 16, i1 false)
  %62 = getelementptr inbounds %"struct.cv::exp16_sig32", ptr %11, i32 0, i32 0
  %63 = load i64, ptr %62, align 8
  %64 = sub nsw i64 %63, 1
  store i64 %64, ptr %7, align 8
  %65 = getelementptr inbounds %"struct.cv::exp16_sig32", ptr %11, i32 0, i32 1
  %66 = load i64, ptr %65, align 8
  store i64 %66, ptr %8, align 8
  br label %67

67:                                               ; preds = %55, %42
  %68 = load i8, ptr %6, align 1
  %69 = trunc i8 %68 to i1
  %70 = zext i1 %69 to i64
  %71 = shl i64 %70, 63
  %72 = load i64, ptr %7, align 8
  %73 = add nsw i64 %72, 896
  %74 = shl i64 %73, 52
  %75 = add i64 %71, %74
  %76 = load i64, ptr %8, align 8
  %77 = shl i64 %76, 29
  %78 = add i64 %75, %77
  store i64 %78, ptr %10, align 8
  br label %79

79:                                               ; preds = %67, %48, %41
  %80 = load i64, ptr %10, align 8
  call void @_ZN2cv10softdouble7fromRawEm(ptr dead_on_unwind writable sret(%"struct.cv::softdouble") align 8 %0, i64 noundef %80)
  ret void
}

; Function Attrs: mustprogress nounwind uwtable
define linkonce_odr hidden void @_ZN2cv9softfloatC2ERKS0_(ptr noundef nonnull align 4 dereferenceable(4) %0, ptr noundef nonnull align 4 dereferenceable(4) %1) unnamed_addr #1 comdat align 2 {
  %3 = alloca ptr, align 8
  %4 = alloca ptr, align 8
  store ptr %0, ptr %3, align 8
  store ptr %1, ptr %4, align 8
  %5 = load ptr, ptr %3, align 8
  %6 = load ptr, ptr %4, align 8
  %7 = getelementptr inbounds %"struct.cv::softfloat", ptr %6, i32 0, i32 0
  %8 = load i32, ptr %7, align 4
  %9 = getelementptr inbounds %"struct.cv::softfloat", ptr %5, i32 0, i32 0
  store i32 %8, ptr %9, align 4
  ret void
}

; Function Attrs: mustprogress uwtable
define void @_ZNK2cv9softfloatcvNS_10softdoubleEEv(ptr dead_on_unwind noalias writable sret(%"struct.cv::softdouble") align 8 %0, ptr noundef nonnull align 4 dereferenceable(4) %1) #0 align 2 {
  %3 = alloca ptr, align 8
  %4 = alloca ptr, align 8
  %5 = alloca %"struct.cv::softfloat", align 4
  store ptr %0, ptr %3, align 8
  store ptr %1, ptr %4, align 8
  %6 = load ptr, ptr %4, align 8
  call void @_ZN2cv9softfloatC2ERKS0_(ptr noundef nonnull align 4 dereferenceable(4) %5, ptr noundef nonnull align 4 dereferenceable(4) %6)
  call void @_ZN2cvL10f32_to_f64ENS_9softfloatE(ptr dead_on_unwind writable sret(%"struct.cv::softdouble") align 8 %0, ptr noundef %5)
  ret void
}