; Function Attrs: mustprogress nofree norecurse nosync nounwind willreturn memory(argmem: readwrite, inaccessiblemem: readwrite) uwtable
define void @_ZNK2cv9softfloatcvNS_10softdoubleEEv(ptr dead_on_unwind noalias nocapture writable writeonly sret(%"struct.cv::softdouble") align 8 %0, ptr nocapture noundef nonnull readonly align 4 dereferenceable(4) %1) local_unnamed_addr #1 align 2 {
  %3 = load i32, ptr %1, align 4
  tail call void @llvm.experimental.noalias.scope.decl(metadata !16)
  %4 = zext i32 %3 to i64
  %5 = lshr i64 %4, 23
  %6 = and i64 %5, 255
  %7 = and i64 %4, 8388607
  %trunc.i = trunc i64 %5 to i8
  switch i8 %trunc.i, label %38 [
    i8 -1, label %8
    i8 0, label %17
  ]

8:                                                ; preds = %2
  %.not23.i = icmp eq i64 %7, 0
  %.lobit24.i = lshr i32 %3, 31
  %9 = zext nneg i32 %.lobit24.i to i64
  %10 = shl nuw i64 %9, 63
  br i1 %.not23.i, label %15, label %11

11:                                               ; preds = %8
  %12 = shl nuw nsw i64 %4, 29
  %13 = or disjoint i64 %10, %12
  %14 = or i64 %13, 9221120237041090560
  br label %_ZN2cvL10f32_to_f64ENS_9softfloatE.exit

15:                                               ; preds = %8
  %16 = or disjoint i64 %10, 9218868437227405312
  br label %_ZN2cvL10f32_to_f64ENS_9softfloatE.exit

17:                                               ; preds = %2
  %.not21.i = icmp eq i64 %7, 0
  br i1 %.not21.i, label %18, label %21

18:                                               ; preds = %17
  %.lobit.i = lshr i32 %3, 31
  %19 = zext nneg i32 %.lobit.i to i64
  %20 = shl nuw i64 %19, 63
  br label %_ZN2cvL10f32_to_f64ENS_9softfloatE.exit

21:                                               ; preds = %17
  %22 = trunc nuw nsw i64 %7 to i32
  %23 = icmp ult i64 %7, 65536
  %24 = shl nuw i32 %22, 16
  %spec.select.i.i.i = select i1 %23, i32 %24, i32 %22
  %spec.select12.i.i.i = select i1 %23, i8 16, i8 0
  %25 = icmp ult i32 %spec.select.i.i.i, 16777216
  %26 = or disjoint i8 %spec.select12.i.i.i, 8
  %27 = shl nuw i32 %spec.select.i.i.i, 8
  %.19.i.i.i = select i1 %25, i32 %27, i32 %spec.select.i.i.i
  %.1.i.i.i = select i1 %25, i8 %26, i8 %spec.select12.i.i.i
  %28 = lshr i32 %.19.i.i.i, 24
  %29 = zext nneg i32 %28 to i64
  %30 = getelementptr inbounds [256 x i8], ptr @_ZN2cvL28softfloat_countLeadingZeros8E, i64 0, i64 %29
  %31 = load i8, ptr %30, align 1, !noalias !16
  %32 = add nsw i8 %.1.i.i.i, -8
  %33 = add i8 %32, %31
  %34 = sext i8 %33 to i32
  %35 = zext nneg i32 %34 to i64
  %36 = shl i64 %7, %35
  %narrow.i = sub nsw i32 0, %34
  %37 = sext i32 %narrow.i to i64
  br label %38

38:                                               ; preds = %21, %2
  %.017.i = phi i64 [ %36, %21 ], [ %7, %2 ]
  %.0.i = phi i64 [ %37, %21 ], [ %6, %2 ]
  %.lobit22.i = lshr i32 %3, 31
  %39 = zext nneg i32 %.lobit22.i to i64
  %40 = shl nuw i64 %39, 63
  %41 = shl nsw i64 %.0.i, 52
  %42 = shl i64 %.017.i, 29
  %43 = or disjoint i64 %40, 4035225266123964416
  %44 = add i64 %43, %42
  %45 = add i64 %44, %41
  br label %_ZN2cvL10f32_to_f64ENS_9softfloatE.exit

_ZN2cvL10f32_to_f64ENS_9softfloatE.exit:          ; preds = %11, %15, %18, %38
  %.018.i = phi i64 [ %14, %11 ], [ %16, %15 ], [ %45, %38 ], [ %20, %18 ]
  store i64 %.018.i, ptr %0, align 8, !alias.scope !19
  ret void
}